; Function Attrs: mustprogress uwtable
define void @_ZN9grpc_core22RegisterDeadlineFilterEPNS_17CoreConfiguration7BuilderE(ptr noundef %builder) local_unnamed_addr #3 {
entry:
  %channel_init_.i = getelementptr inbounds i8, ptr %builder, i64 32
  %call1 = tail call noundef nonnull align 8 dereferenceable(104) ptr @_ZN9grpc_core11ChannelInit7Builder14RegisterFilterE23grpc_channel_stack_typePK19grpc_channel_filterNS_14SourceLocationE(ptr noundef nonnull align 16 dereferenceable(528) %channel_init_.i, i32 noundef 4, ptr noundef nonnull @grpc_client_deadline_filter, ptr nonnull @.str, i32 398)
  %call2 = tail call noundef nonnull align 8 dereferenceable(104) ptr @_ZN9grpc_core11ChannelInit18FilterRegistration23ExcludeFromMinimalStackEv(ptr noundef nonnull align 8 dereferenceable(104) %call1)
  %call3 = tail call noundef nonnull align 8 dereferenceable(104) ptr @_ZN9grpc_core11ChannelInit18FilterRegistration12IfChannelArgEPKcb(ptr noundef nonnull align 8 dereferenceable(104) %call2, ptr noundef nonnull @.str.2, i1 noundef zeroext true)
  %call6 = tail call noundef nonnull align 8 dereferenceable(104) ptr @_ZN9grpc_core11ChannelInit7Builder14RegisterFilterE23grpc_channel_stack_typePK19grpc_channel_filterNS_14SourceLocationE(ptr noundef nonnull align 16 dereferenceable(528) %channel_init_.i, i32 noundef 5, ptr noundef nonnull @grpc_server_deadline_filter, ptr nonnull @.str, i32 402)
  %call7 = tail call noundef nonnull align 8 dereferenceable(104) ptr @_ZN9grpc_core11ChannelInit18FilterRegistration23ExcludeFromMinimalStackEv(ptr noundef nonnull align 8 dereferenceable(104) %call6)
  %call8 = tail call noundef nonnull align 8 dereferenceable(104) ptr @_ZN9grpc_core11ChannelInit18FilterRegistration12IfChannelArgEPKcb(ptr noundef nonnull align 8 dereferenceable(104) %call7, ptr noundef nonnull @.str.2, i1 noundef zeroext true)
  ret void
}